target datalayout = "e-m:e-p270:32:32-p271:32:32-p272:64:64-i64:64-i128:128-f80:128-n8:16:32:64-S128"
target triple = "x86_64-pc-linux-gnu"

%struct.ssl_st = type { i32, i16, i16, ptr, ptr, ptr, ptr, ptr, i32, i32, ptr, ptr, i32, i32, ptr, ptr, ptr, ptr, ptr, ptr, ptr, ptr, i32, i32, [32 x i8], ptr, ptr, ptr, ptr, ptr, ptr, ptr, i64, %struct.crypto_ex_data_st, ptr, i32, i32, i32, i32, i16, ptr, i32, i64, ptr, ptr, ptr, ptr, ptr, ptr, i32, i32, ptr, ptr, i8, i8, i32 }
%struct.crypto_ex_data_st = type { ptr }
%struct.ssl3_state_st = type { [8 x i8], [8 x i8], [32 x i8], [32 x i8], i8, i8, %struct.ssl3_buffer_st, %struct.ssl3_buffer_st, %struct.ssl3_record_st, i8, i32, i32, i32, i32, ptr, ptr, %struct.env_md_ctx_st, %struct.env_md_ctx_st, i8, i32, [2 x i8], i32, i8, i8, ptr, ptr, ptr, %struct.anon, [64 x i8], i8, [64 x i8], i8, i32, i32, ptr, i64, ptr, i64, i8, [64 x i8] }
%struct.ssl3_buffer_st = type { ptr, i16, i16, i16 }
%struct.ssl3_record_st = type { i8, i16, ptr }
%struct.env_md_ctx_st = type { ptr, ptr, ptr, ptr }
%struct.anon = type { [64 x i8], i32, [64 x i8], i32, i64, i32, ptr, i32, i32, %union.anon, %union.anon.0, i8, i32, ptr, ptr, i64, ptr, i8, i8, i8, i8, i32, i8, ptr, i64, i8, ptr, i8, i8, i8, %struct.ssl_ecdh_ctx_st, ptr, i16 }
%union.anon = type { i32 }
%union.anon.0 = type { i16 }
%struct.ssl_ecdh_ctx_st = type { ptr, ptr }
%struct.cbb_st = type { ptr, ptr, i64, i8, i8, i8 }

; Function Attrs: nounwind uwtable
define internal i32 @ext_ri_add_serverhello(ptr noundef %0, ptr noundef %1) #0 {
  %3 = alloca i32, align 4
  %4 = alloca ptr, align 8
  %5 = alloca ptr, align 8
  %6 = alloca %struct.cbb_st, align 8
  %7 = alloca %struct.cbb_st, align 8
  %8 = alloca i32, align 4
  store ptr %0, ptr %4, align 8, !tbaa !69
  store ptr %1, ptr %5, align 8, !tbaa !128
  call void @llvm.lifetime.start.p0(i64 32, ptr %6) #8
  call void @llvm.lifetime.start.p0(i64 32, ptr %7) #8
  %9 = load ptr, ptr %5, align 8, !tbaa !128
  %10 = call i32 @CBB_add_u16(ptr noundef %9, i16 noundef zeroext -255)
  %11 = icmp ne i32 %10, 0
  br i1 %11, label %12, label %51

12:                                               ; preds = %2
  %13 = load ptr, ptr %5, align 8, !tbaa !128
  %14 = call i32 @CBB_add_u16_length_prefixed(ptr noundef %13, ptr noundef %6)
  %15 = icmp ne i32 %14, 0
  br i1 %15, label %16, label %51

16:                                               ; preds = %12
  %17 = call i32 @CBB_add_u8_length_prefixed(ptr noundef %6, ptr noundef %7)
  %18 = icmp ne i32 %17, 0
  br i1 %18, label %19, label %51

19:                                               ; preds = %16
  %20 = load ptr, ptr %4, align 8, !tbaa !69
  %21 = getelementptr inbounds nuw %struct.ssl_st, ptr %20, i32 0, i32 14
  %22 = load ptr, ptr %21, align 8, !tbaa !75
  %23 = getelementptr inbounds nuw %struct.ssl3_state_st, ptr %22, i32 0, i32 28
  %24 = getelementptr inbounds [64 x i8], ptr %23, i64 0, i64 0
  %25 = load ptr, ptr %4, align 8, !tbaa !69
  %26 = getelementptr inbounds nuw %struct.ssl_st, ptr %25, i32 0, i32 14
  %27 = load ptr, ptr %26, align 8, !tbaa !75
  %28 = getelementptr inbounds nuw %struct.ssl3_state_st, ptr %27, i32 0, i32 29
  %29 = load i8, ptr %28, align 8, !tbaa !180
  %30 = zext i8 %29 to i64
  %31 = call i32 @CBB_add_bytes(ptr noundef %7, ptr noundef %24, i64 noundef %30)
  %32 = icmp ne i32 %31, 0
  br i1 %32, label %33, label %51

33:                                               ; preds = %19
  %34 = load ptr, ptr %4, align 8, !tbaa !69
  %35 = getelementptr inbounds nuw %struct.ssl_st, ptr %34, i32 0, i32 14
  %36 = load ptr, ptr %35, align 8, !tbaa !75
  %37 = getelementptr inbounds nuw %struct.ssl3_state_st, ptr %36, i32 0, i32 30
  %38 = getelementptr inbounds [64 x i8], ptr %37, i64 0, i64 0
  %39 = load ptr, ptr %4, align 8, !tbaa !69
  %40 = getelementptr inbounds nuw %struct.ssl_st, ptr %39, i32 0, i32 14
  %41 = load ptr, ptr %40, align 8, !tbaa !75
  %42 = getelementptr inbounds nuw %struct.ssl3_state_st, ptr %41, i32 0, i32 31
  %43 = load i8, ptr %42, align 1, !tbaa !182
  %44 = zext i8 %43 to i64
  %45 = call i32 @CBB_add_bytes(ptr noundef %7, ptr noundef %38, i64 noundef %44)
  %46 = icmp ne i32 %45, 0
  br i1 %46, label %47, label %51

47:                                               ; preds = %33
  %48 = load ptr, ptr %5, align 8, !tbaa !128
  %49 = call i32 @CBB_flush(ptr noundef %48)
  %50 = icmp ne i32 %49, 0
  br i1 %50, label %52, label %51

51:                                               ; preds = %47, %33, %19, %16, %12, %2
  store i32 0, ptr %3, align 4
  store i32 1, ptr %8, align 4
  br label %53

52:                                               ; preds = %47
  store i32 1, ptr %3, align 4
  store i32 1, ptr %8, align 4
  br label %53

53:                                               ; preds = %52, %51
  call void @llvm.lifetime.end.p0(i64 32, ptr %7) #8
  call void @llvm.lifetime.end.p0(i64 32, ptr %6) #8
  %54 = load i32, ptr %3, align 4
  ret i32 %54
}