; Function Attrs: nounwind uwtable
define internal range(i32 0, 2) i32 @ext_ri_add_serverhello(ptr noundef readonly captures(none) %0, ptr noundef %1) #0 {
  %3 = alloca %struct.cbb_st, align 8
  %4 = alloca %struct.cbb_st, align 8
  call void @llvm.lifetime.start.p0(i64 32, ptr nonnull %3) #21
  call void @llvm.lifetime.start.p0(i64 32, ptr nonnull %4) #21
  %5 = tail call i32 @CBB_add_u16(ptr noundef %1, i16 noundef zeroext -255) #21
  %.not = icmp eq i32 %5, 0
  br i1 %.not, label %27, label %6

6:                                                ; preds = %2
  %7 = call i32 @CBB_add_u16_length_prefixed(ptr noundef %1, ptr noundef nonnull %3) #21
  %.not7 = icmp eq i32 %7, 0
  br i1 %.not7, label %27, label %8

8:                                                ; preds = %6
  %9 = call i32 @CBB_add_u8_length_prefixed(ptr noundef nonnull %3, ptr noundef nonnull %4) #21
  %.not8 = icmp eq i32 %9, 0
  br i1 %.not8, label %27, label %10

10:                                               ; preds = %8
  %11 = getelementptr inbounds nuw i8, ptr %0, i64 80
  %12 = load ptr, ptr %11, align 8, !tbaa !58
  %13 = getelementptr inbounds nuw i8, ptr %12, i64 592
  %14 = getelementptr inbounds nuw i8, ptr %12, i64 656
  %15 = load i8, ptr %14, align 8, !tbaa !149
  %16 = zext i8 %15 to i64
  %17 = call i32 @CBB_add_bytes(ptr noundef nonnull %4, ptr noundef nonnull %13, i64 noundef %16) #21
  %.not9 = icmp eq i32 %17, 0
  br i1 %.not9, label %27, label %18

18:                                               ; preds = %10
  %19 = load ptr, ptr %11, align 8, !tbaa !58
  %20 = getelementptr inbounds nuw i8, ptr %19, i64 657
  %21 = getelementptr inbounds nuw i8, ptr %19, i64 721
  %22 = load i8, ptr %21, align 1, !tbaa !151
  %23 = zext i8 %22 to i64
  %24 = call i32 @CBB_add_bytes(ptr noundef nonnull %4, ptr noundef nonnull %20, i64 noundef %23) #21
  %.not10 = icmp eq i32 %24, 0
  br i1 %.not10, label %27, label %25

25:                                               ; preds = %18
  %26 = call i32 @CBB_flush(ptr noundef %1) #21
  %.not11 = icmp ne i32 %26, 0
  %spec.select = zext i1 %.not11 to i32
  br label %27

27:                                               ; preds = %25, %2, %6, %8, %10, %18
  %.0 = phi i32 [ 0, %18 ], [ 0, %10 ], [ 0, %8 ], [ 0, %6 ], [ 0, %2 ], [ %spec.select, %25 ]
  call void @llvm.lifetime.end.p0(i64 32, ptr nonnull %4) #21
  call void @llvm.lifetime.end.p0(i64 32, ptr nonnull %3) #21
  ret i32 %.0
}